; Function Attrs: mustprogress nounwind uwtable
define noundef zeroext i1 @_ZN7glslang11HlslGrammar26acceptTessellationDeclTypeERNS_16TBuiltInVariableE(ptr noundef nonnull align 8 dereferenceable(360) %0, ptr nocapture noundef nonnull writeonly align 4 dereferenceable(4) %1) local_unnamed_addr #0 align 2 {
  %3 = tail call noundef i32 @_ZNK7glslang15HlslTokenStream4peekEv(ptr noundef nonnull align 8 dereferenceable(324) %0) #16
  switch i32 %3, label %6 [
    i32 33, label %5
    i32 34, label %4
  ]

4:                                                ; preds = %2
  br label %5

5:                                                ; preds = %2, %4
  %storemerge = phi i32 [ 141, %4 ], [ 142, %2 ]
  store i32 %storemerge, ptr %1, align 4
  tail call void @_ZN7glslang15HlslTokenStream12advanceTokenEv(ptr noundef nonnull align 8 dereferenceable(324) %0) #16
  br label %6

6:                                                ; preds = %2, %5
  %.0 = phi i1 [ true, %5 ], [ false, %2 ]
  ret i1 %.0
}